ccopy_reg
_reconstructor
p0
(csklearn.pipeline
Pipeline
p1
c__builtin__
object
p2
Ntp3
Rp4
(dp5
S'_sklearn_version'
p6
S'0.18.1'
p7
sS'steps'
p8
(lp9
(S'imputer'
p10
g0
(csklearn.preprocessing.imputation
Imputer
p11
g2
Ntp12
Rp13
(dp14
S'strategy'
p15
S'median'
p16
sS'axis'
p17
I0
sS'verbose'
p18
I0
sg6
g7
sS'copy'
p19
I01
sS'missing_values'
p20
S'NaN'
p21
sbtp22
a(S'extratreesclassifier'
p23
g0
(csklearn.ensemble.forest
ExtraTreesClassifier
p24
g2
Ntp25
Rp26
(dp27
S'warm_start'
p28
I00
sS'base_estimator'
p29
g0
(csklearn.tree.tree
ExtraTreeClassifier
p30
g2
Ntp31
Rp32
(dp33
S'presort'
p34
I00
sS'splitter'
p35
S'random'
p36
sS'tree_'
p37
NsS'n_features_'
p38
NsS'n_outputs_'
p39
NsS'n_classes_'
p40
NsS'min_impurity_split'
p41
F1e-07
sS'classes_'
p42
NsS'max_features_'
p43
NsS'min_samples_leaf'
p44
I1
sS'min_samples_split'
p45
I2
sS'random_state'
p46
NsS'criterion'
p47
S'gini'
p48
sS'min_weight_fraction_leaf'
p49
F0.0
sS'max_leaf_nodes'
p50
NsS'max_features'
p51
S'auto'
p52
sg6
g7
sS'max_depth'
p53
NsS'class_weight'
p54
NsbsS'estimators_'
p55
(lp56
sS'n_jobs'
p57
I-1
sg18
I0
sg50
NsS'bootstrap'
p58
I00
sS'oob_score'
p59
I00
sg44
I3
sS'n_estimators'
p60
I30
sg45
I2
sg46
I20160308
sg47
g48
sS'estimator_params'
p61
(g47
g53
g45
g44
g49
g51
g50
g41
g46
tp62
sg41
F1e-07
sg51
S'sqrt'
p63
sg6
g7
sg49
F0.0
sg53
Nsg54
S'balanced'
p64
sbtp65
asb.