(lp0
S'to_messages'
p1
aS'from_messages'
p2
aS'from_poi_to_this_person'
p3
aS'from_this_person_to_poi'
p4
aS'shared_receipt_with_poi'
p5
aS'salary'
p6
aS'bonus'
p7
aS'long_term_incentive'
p8
aS'deferred_income'
p9
aS'deferral_payments'
p10
aS'loan_advances'
p11
aS'other'
p12
aS'expenses'
p13
aS'director_fees'
p14
aS'total_payments'
p15
aS'exercised_stock_options'
p16
aS'restricted_stock'
p17
aS'restricted_stock_deferred'
p18
aS'total_stock_value'
p19
a.